; Function Attrs: mustprogress nofree norecurse nosync nounwind willreturn memory(read, inaccessiblemem: none) uwtable
define noundef ptr @_ZNK11OpenImageIO6v3_1_08DeepData8data_ptrElii(ptr noundef nonnull readonly align 8 captures(none) dereferenceable(20) %0, i64 noundef %1, i32 noundef %2, i32 noundef %3) local_unnamed_addr #12 align 2 {
  %5 = icmp slt i64 %1, 0
  br i1 %5, label %44, label %6

6:                                                ; preds = %4
  %7 = getelementptr inbounds nuw i8, ptr %0, i64 8
  %8 = load i64, ptr %7, align 8, !tbaa !62
  %9 = icmp slt i64 %1, %8
  %10 = icmp sgt i32 %2, -1
  %or.cond.not24 = and i1 %10, %9
  %11 = getelementptr inbounds nuw i8, ptr %0, i64 16
  %12 = load i32, ptr %11, align 8
  %.not = icmp slt i32 %2, %12
  %or.cond21 = select i1 %or.cond.not24, i1 %.not, i1 false
  br i1 %or.cond21, label %13, label %44

13:                                               ; preds = %6
  %14 = load ptr, ptr %0, align 8, !tbaa !35
  %.not18 = icmp eq ptr %14, null
  br i1 %.not18, label %44, label %15

15:                                               ; preds = %13
  %16 = getelementptr inbounds nuw i8, ptr %14, i64 144
  %17 = getelementptr inbounds nuw i8, ptr %14, i64 152
  %18 = load ptr, ptr %17, align 8, !tbaa !129
  %19 = load ptr, ptr %16, align 8, !tbaa !51
  %20 = icmp eq ptr %18, %19
  %21 = icmp slt i32 %3, 0
  %or.cond3 = or i1 %21, %20
  br i1 %or.cond3, label %44, label %22

22:                                               ; preds = %15
  %23 = getelementptr inbounds nuw i8, ptr %14, i64 72
  %24 = load ptr, ptr %23, align 8, !tbaa !54
  %25 = getelementptr inbounds nuw i32, ptr %24, i64 %1
  %26 = load i32, ptr %25, align 4, !tbaa !85
  %.not19 = icmp slt i32 %3, %26
  br i1 %.not19, label %27, label %44

27:                                               ; preds = %22
  %28 = getelementptr inbounds nuw i8, ptr %14, i64 120
  %29 = load ptr, ptr %28, align 8, !tbaa !54
  %30 = getelementptr inbounds nuw i32, ptr %29, i64 %1
  %31 = load i32, ptr %30, align 4, !tbaa !85
  %32 = add i32 %31, %3
  %33 = zext i32 %32 to i64
  %34 = getelementptr inbounds nuw i8, ptr %14, i64 216
  %35 = load i64, ptr %34, align 8, !tbaa !93
  %36 = mul i64 %35, %33
  %37 = getelementptr inbounds nuw i8, ptr %14, i64 48
  %38 = zext nneg i32 %2 to i64
  %39 = load ptr, ptr %37, align 8, !tbaa !57
  %40 = getelementptr inbounds nuw i64, ptr %39, i64 %38
  %41 = load i64, ptr %40, align 8, !tbaa !96
  %42 = getelementptr i8, ptr %19, i64 %36
  %43 = getelementptr i8, ptr %42, i64 %41
  br label %44

44:                                               ; preds = %4, %6, %13, %15, %22, %27
  %.0 = phi ptr [ %43, %27 ], [ null, %22 ], [ null, %15 ], [ null, %13 ], [ null, %6 ], [ null, %4 ]
  ret ptr %.0
}